; Function Attrs: nounwind uwtable
define internal range(i32 -2147483648, 2) i32 @speex_header(ptr noundef %0, i32 noundef %1) #0 {
  %3 = getelementptr inbounds nuw i8, ptr %0, i64 24
  %4 = load ptr, ptr %3, align 8, !tbaa !4
  %5 = load ptr, ptr %4, align 8, !tbaa !24
  %6 = sext i32 %1 to i64
  %7 = getelementptr inbounds %struct.ogg_stream, ptr %5, i64 %6
  %8 = getelementptr inbounds nuw i8, ptr %7, i64 424
  %9 = load ptr, ptr %8, align 8, !tbaa !28
  %10 = getelementptr inbounds nuw i8, ptr %0, i64 48
  %11 = load ptr, ptr %10, align 8, !tbaa !31
  %12 = getelementptr inbounds ptr, ptr %11, i64 %6
  %13 = load ptr, ptr %12, align 8, !tbaa !32
  %14 = load ptr, ptr %7, align 8, !tbaa !34
  %15 = getelementptr inbounds nuw i8, ptr %7, i64 16
  %16 = load i32, ptr %15, align 8, !tbaa !35
  %17 = zext i32 %16 to i64
  %18 = getelementptr inbounds nuw i8, ptr %14, i64 %17
  %.not = icmp eq ptr %9, null
  br i1 %.not, label %19, label %22

19:                                               ; preds = %2
  %20 = tail call noalias ptr @av_mallocz(i64 noundef 12) #4
  %.not70 = icmp eq ptr %20, null
  br i1 %.not70, label %.thread, label %21

21:                                               ; preds = %19
  store ptr %20, ptr %8, align 8, !tbaa !28
  br label %22

22:                                               ; preds = %21, %2
  %.060 = phi ptr [ %9, %2 ], [ %20, %21 ]
  %23 = getelementptr inbounds nuw i8, ptr %.060, i64 8
  %24 = load i32, ptr %23, align 4, !tbaa !36
  %25 = icmp sgt i32 %24, 1
  br i1 %25, label %.thread, label %26

26:                                               ; preds = %22
  %27 = icmp eq i32 %24, 0
  br i1 %27, label %28, label %78

28:                                               ; preds = %26
  %29 = getelementptr inbounds nuw i8, ptr %13, i64 16
  %30 = load ptr, ptr %29, align 8, !tbaa !38
  store i32 1, ptr %30, align 8, !tbaa !45
  %31 = getelementptr inbounds nuw i8, ptr %30, i64 4
  store i32 86051, ptr %31, align 4, !tbaa !48
  %32 = getelementptr inbounds nuw i8, ptr %7, i64 20
  %33 = load i32, ptr %32, align 4, !tbaa !49
  %34 = icmp ult i32 %33, 68
  br i1 %34, label %35, label %36

35:                                               ; preds = %28
  tail call void (ptr, i32, ptr, ...) @av_log(ptr noundef nonnull %0, i32 noundef 16, ptr noundef nonnull @.str.1) #4
  br label %.thread

36:                                               ; preds = %28
  %37 = getelementptr inbounds nuw i8, ptr %18, i64 36
  %38 = load i32, ptr %37, align 1, !tbaa !50
  %39 = getelementptr inbounds nuw i8, ptr %30, i64 152
  store i32 %38, ptr %39, align 8, !tbaa !51
  %40 = icmp slt i32 %38, 1
  br i1 %40, label %41, label %42

41:                                               ; preds = %36
  tail call void (ptr, i32, ptr, ...) @av_log(ptr noundef nonnull %0, i32 noundef 16, ptr noundef nonnull @.str.2, i32 noundef %38) #4
  br label %.thread

42:                                               ; preds = %36
  %43 = getelementptr inbounds nuw i8, ptr %18, i64 48
  %44 = load i32, ptr %43, align 1, !tbaa !50
  %45 = add i32 %44, -3
  %or.cond = icmp ult i32 %45, -2
  br i1 %or.cond, label %46, label %47

46:                                               ; preds = %42
  tail call void (ptr, i32, ptr, ...) @av_log(ptr noundef nonnull %0, i32 noundef 16, ptr noundef nonnull @.str.3) #4
  br label %.thread

47:                                               ; preds = %42
  %48 = getelementptr inbounds nuw i8, ptr %30, i64 128
  tail call void @av_channel_layout_default(ptr noundef nonnull %48, i32 noundef %44) #4
  %49 = getelementptr inbounds nuw i8, ptr %18, i64 56
  %50 = load i32, ptr %49, align 1, !tbaa !50
  store i32 %50, ptr %.060, align 4, !tbaa !52
  %51 = getelementptr inbounds nuw i8, ptr %18, i64 64
  %52 = load i32, ptr %51, align 1, !tbaa !50
  %53 = icmp slt i32 %50, 0
  %54 = icmp slt i32 %52, 0
  %or.cond3 = select i1 %53, i1 true, i1 %54
  %55 = zext nneg i32 %50 to i64
  %56 = zext nneg i32 %52 to i64
  %57 = mul nuw nsw i64 %56, %55
  %58 = icmp samesign ugt i64 %57, 8388607
  %or.cond75 = select i1 %or.cond3, i1 true, i1 %58
  br i1 %or.cond75, label %59, label %60

59:                                               ; preds = %47
  tail call void (ptr, i32, ptr, ...) @av_log(ptr noundef nonnull %0, i32 noundef 16, ptr noundef nonnull @.str.4, i32 noundef %50, i32 noundef %52) #4
  store i32 0, ptr %.060, align 4, !tbaa !52
  br label %.thread

60:                                               ; preds = %47
  %.not71 = icmp eq i32 %52, 0
  br i1 %.not71, label %63, label %61

61:                                               ; preds = %60
  %62 = mul nuw nsw i32 %52, %50
  store i32 %62, ptr %.060, align 4, !tbaa !52
  br label %63

63:                                               ; preds = %61, %60
  %64 = load ptr, ptr %29, align 8, !tbaa !38
  %65 = load i32, ptr %32, align 4, !tbaa !49
  %66 = tail call i32 @ff_alloc_extradata(ptr noundef %64, i32 noundef %65) #4
  %67 = icmp slt i32 %66, 0
  br i1 %67, label %.thread, label %68

68:                                               ; preds = %63
  %69 = load ptr, ptr %29, align 8, !tbaa !38
  %70 = getelementptr inbounds nuw i8, ptr %69, i64 16
  %71 = load ptr, ptr %70, align 8, !tbaa !53
  %72 = getelementptr inbounds nuw i8, ptr %69, i64 24
  %73 = load i32, ptr %72, align 8, !tbaa !54
  %74 = sext i32 %73 to i64
  tail call void @llvm.memcpy.p0.p0.i64(ptr align 1 %71, ptr nonnull align 1 %18, i64 %74, i1 false)
  %75 = load ptr, ptr %29, align 8, !tbaa !38
  %76 = getelementptr inbounds nuw i8, ptr %75, i64 152
  %77 = load i32, ptr %76, align 8, !tbaa !51
  tail call void @avpriv_set_pts_info(ptr noundef nonnull %13, i32 noundef 64, i32 noundef 1, i32 noundef %77) #4
  br label %82

78:                                               ; preds = %26
  %79 = getelementptr inbounds nuw i8, ptr %7, i64 20
  %80 = load i32, ptr %79, align 4, !tbaa !49
  %81 = tail call i32 @ff_vorbis_stream_comment(ptr noundef nonnull %0, ptr noundef %13, ptr noundef %18, i32 noundef %80) #4
  br label %82

82:                                               ; preds = %68, %78
  %83 = load i32, ptr %23, align 4, !tbaa !36
  %84 = add nsw i32 %83, 1
  store i32 %84, ptr %23, align 4, !tbaa !36
  br label %.thread

.thread:                                          ; preds = %63, %59, %46, %41, %35, %22, %19, %82
  %.0 = phi i32 [ 1, %82 ], [ -12, %19 ], [ 0, %22 ], [ %66, %63 ], [ -1094995529, %59 ], [ -1094995529, %46 ], [ -1094995529, %41 ], [ -1094995529, %35 ]
  ret i32 %.0
}